; Function Attrs: nounwind uwtable
define hidden void @png_handle_IEND(ptr noalias noundef %0, ptr noalias nocapture noundef readnone %1, i32 noundef %2) local_unnamed_addr #0 {
  %4 = getelementptr inbounds i8, ptr %0, i64 292
  %5 = load i32, ptr %4, align 4
  %6 = and i32 %5, 5
  %or.cond.not = icmp eq i32 %6, 5
  br i1 %or.cond.not, label %8, label %7

7:                                                ; preds = %3
  tail call void @png_chunk_error(ptr noundef nonnull %0, ptr noundef nonnull @.str.5) #11
  unreachable

8:                                                ; preds = %3
  %9 = or i32 %5, 24
  store i32 %9, ptr %4, align 4
  %10 = tail call i32 @png_crc_finish(ptr noundef nonnull %0, i32 noundef %2)
  %.not = icmp eq i32 %2, 0
  br i1 %.not, label %12, label %11

11:                                               ; preds = %8
  tail call void @png_chunk_benign_error(ptr noundef nonnull %0, ptr noundef nonnull @.str.6) #12
  br label %12

12:                                               ; preds = %11, %8
  ret void
}